target datalayout = "e-m:e-p270:32:32-p271:32:32-p272:64:64-i64:64-i128:128-f80:128-n8:16:32:64-S128"
target triple = "x86_64-pc-linux-gnu"

%class.Node = type <{ ptr, ptr, ptr, i32, i32, i32, i32, i32, i32, i32, [4 x i8] }>
%class.PhaseValues = type { %class.PhaseTransform, i8, ptr, ptr, [137 x ptr], [137 x ptr], [20 x ptr] }
%class.PhaseTransform = type { ptr, %class.Phase }
%class.Phase = type { i32, ptr }
%class.TypeInt = type { %class.TypeInteger.base, i32, i32 }
%class.TypeInteger.base = type { %class.Type.base, i16 }
%class.Type.base = type <{ ptr, ptr, i32 }>
%class.TypeInteger = type { %class.Type.base, i16, [2 x i8] }
%class.TypeLong = type { %class.TypeInteger.base, i64, i64 }
%class.Type_Array = type { ptr, i32, ptr }

@_ZN4Type3TOPE = external global ptr, align 8
@_ZN4Type6BOTTOME = external global ptr, align 8
@_ZN7TypeInt3INTE = external global ptr, align 8
@_ZN8TypeLong4LONGE = external global ptr, align 8
@_ZN7TypeInt4ZEROE = external global ptr, align 8
@_ZN8TypeLong4ZEROE = external global ptr, align 8

; Function Attrs: mustprogress nounwind uwtable
define linkonce_odr hidden noundef ptr @_ZNK10Type_Array11fast_lookupEj(ptr noundef nonnull align 8 dereferenceable(24) %0, i32 noundef %1) #1 comdat align 2 {
  %3 = alloca ptr, align 8
  %4 = alloca i32, align 4
  store ptr %0, ptr %3, align 8
  store i32 %1, ptr %4, align 4
  %5 = load ptr, ptr %3, align 8
  %6 = getelementptr inbounds %class.Type_Array, ptr %5, i32 0, i32 2
  %7 = load ptr, ptr %6, align 8
  %8 = load i32, ptr %4, align 4
  %9 = zext i32 %8 to i64
  %10 = getelementptr inbounds ptr, ptr %7, i64 %9
  %11 = load ptr, ptr %10, align 8
  ret ptr %11
}

; Function Attrs: mustprogress nounwind uwtable
define linkonce_odr hidden noundef signext i16 @_Z4MAX2IsET_S0_S0_(i16 noundef signext %0, i16 noundef signext %1) #1 comdat {
  %3 = alloca i16, align 2
  %4 = alloca i16, align 2
  store i16 %0, ptr %3, align 2
  store i16 %1, ptr %4, align 2
  %5 = load i16, ptr %3, align 2
  %6 = sext i16 %5 to i32
  %7 = load i16, ptr %4, align 2
  %8 = sext i16 %7 to i32
  %9 = icmp sgt i32 %6, %8
  br i1 %9, label %10, label %12

10:                                               ; preds = %2
  %11 = load i16, ptr %3, align 2
  br label %14

12:                                               ; preds = %2
  %13 = load i16, ptr %4, align 2
  br label %14

14:                                               ; preds = %12, %10
  %15 = phi i16 [ %11, %10 ], [ %13, %12 ]
  ret i16 %15
}

; Function Attrs: mustprogress nounwind uwtable
define linkonce_odr hidden noundef i32 @_ZNK7TypeInt7get_conEv(ptr noundef nonnull align 8 dereferenceable(32) %0) #1 comdat align 2 {
  %2 = alloca ptr, align 8
  store ptr %0, ptr %2, align 8
  %3 = load ptr, ptr %2, align 8
  %4 = getelementptr inbounds %class.TypeInt, ptr %3, i32 0, i32 1
  %5 = load i32, ptr %4, align 8
  ret i32 %5
}

; Function Attrs: mustprogress nounwind uwtable
define linkonce_odr hidden noundef zeroext i1 @_ZNK7TypeInt6is_conEv(ptr noundef nonnull align 8 dereferenceable(32) %0) #1 comdat align 2 {
  %2 = alloca ptr, align 8
  store ptr %0, ptr %2, align 8
  %3 = load ptr, ptr %2, align 8
  %4 = getelementptr inbounds %class.TypeInt, ptr %3, i32 0, i32 1
  %5 = load i32, ptr %4, align 8
  %6 = getelementptr inbounds %class.TypeInt, ptr %3, i32 0, i32 2
  %7 = load i32, ptr %6, align 4
  %8 = icmp eq i32 %5, %7
  ret i1 %8
}

; Function Attrs: mustprogress nounwind uwtable
define linkonce_odr hidden noundef ptr @_ZNK4Type6is_intEv(ptr noundef nonnull align 8 dereferenceable(20) %0) #1 comdat align 2 {
  %2 = alloca ptr, align 8
  store ptr %0, ptr %2, align 8
  %3 = load ptr, ptr %2, align 8
  ret ptr %3
}

; Function Attrs: mustprogress nounwind uwtable
define linkonce_odr hidden noundef ptr @_ZNK4Type7is_longEv(ptr noundef nonnull align 8 dereferenceable(20) %0) #1 comdat align 2 {
  %2 = alloca ptr, align 8
  store ptr %0, ptr %2, align 8
  %3 = load ptr, ptr %2, align 8
  ret ptr %3
}

; Function Attrs: mustprogress nounwind uwtable
define linkonce_odr hidden noundef ptr @_ZNK11PhaseValues4typeEPK4Node(ptr noundef nonnull align 8 dereferenceable(2400) %0, ptr noundef %1) #1 comdat align 2 {
  %3 = alloca ptr, align 8
  %4 = alloca ptr, align 8
  %5 = alloca ptr, align 8
  store ptr %0, ptr %3, align 8
  store ptr %1, ptr %4, align 8
  %6 = load ptr, ptr %3, align 8
  %7 = getelementptr inbounds %class.PhaseValues, ptr %6, i32 0, i32 3
  %8 = load ptr, ptr %7, align 8
  %9 = load ptr, ptr %4, align 8
  %10 = getelementptr inbounds %class.Node, ptr %9, i32 0, i32 7
  %11 = load i32, ptr %10, align 8
  %12 = call noundef ptr @_ZNK10Type_Array11fast_lookupEj(ptr noundef nonnull align 8 dereferenceable(24) %8, i32 noundef %11)
  store ptr %12, ptr %5, align 8
  %13 = load ptr, ptr %5, align 8
  ret ptr %13
}

; Function Attrs: mustprogress nounwind uwtable
define linkonce_odr hidden noundef ptr @_ZNK4Node2inEj(ptr noundef nonnull align 8 dereferenceable(52) %0, i32 noundef %1) #1 comdat align 2 {
  %3 = alloca ptr, align 8
  %4 = alloca i32, align 4
  store ptr %0, ptr %3, align 8
  store i32 %1, ptr %4, align 4
  %5 = load ptr, ptr %3, align 8
  %6 = getelementptr inbounds %class.Node, ptr %5, i32 0, i32 1
  %7 = load ptr, ptr %6, align 8
  %8 = load i32, ptr %4, align 4
  %9 = zext i32 %8 to i64
  %10 = getelementptr inbounds ptr, ptr %7, i64 %9
  %11 = load ptr, ptr %10, align 8
  ret ptr %11
}

; Function Attrs: mustprogress nounwind uwtable
define hidden noundef ptr @_ZNK12URShiftLNode5ValueEP8PhaseGVN(ptr noundef nonnull align 8 dereferenceable(52) %0, ptr noundef %1) unnamed_addr #1 align 2 {
  %3 = alloca ptr, align 8
  %4 = alloca ptr, align 8
  %5 = alloca ptr, align 8
  %6 = alloca ptr, align 8
  %7 = alloca ptr, align 8
  %8 = alloca ptr, align 8
  %9 = alloca ptr, align 8
  %10 = alloca i32, align 4
  %11 = alloca i64, align 8
  %12 = alloca i64, align 8
  %13 = alloca i64, align 8
  %14 = alloca i64, align 8
  %15 = alloca i64, align 8
  %16 = alloca i64, align 8
  %17 = alloca ptr, align 8
  store ptr %0, ptr %4, align 8
  store ptr %1, ptr %5, align 8
  %18 = load ptr, ptr %4, align 8
  %19 = load ptr, ptr %5, align 8
  %20 = call noundef ptr @_ZNK4Node2inEj(ptr noundef nonnull align 8 dereferenceable(52) %18, i32 noundef 1)
  %21 = call noundef ptr @_ZNK11PhaseValues4typeEPK4Node(ptr noundef nonnull align 8 dereferenceable(2400) %19, ptr noundef %20)
  store ptr %21, ptr %6, align 8
  %22 = load ptr, ptr %5, align 8
  %23 = call noundef ptr @_ZNK4Node2inEj(ptr noundef nonnull align 8 dereferenceable(52) %18, i32 noundef 2)
  %24 = call noundef ptr @_ZNK11PhaseValues4typeEPK4Node(ptr noundef nonnull align 8 dereferenceable(2400) %22, ptr noundef %23)
  store ptr %24, ptr %7, align 8
  %25 = load ptr, ptr %6, align 8
  %26 = load ptr, ptr @_ZN4Type3TOPE, align 8
  %27 = icmp eq ptr %25, %26
  br i1 %27, label %28, label %30

28:                                               ; preds = %2
  %29 = load ptr, ptr @_ZN4Type3TOPE, align 8
  store ptr %29, ptr %3, align 8
  br label %144

30:                                               ; preds = %2
  %31 = load ptr, ptr %7, align 8
  %32 = load ptr, ptr @_ZN4Type3TOPE, align 8
  %33 = icmp eq ptr %31, %32
  br i1 %33, label %34, label %36

34:                                               ; preds = %30
  %35 = load ptr, ptr @_ZN4Type3TOPE, align 8
  store ptr %35, ptr %3, align 8
  br label %144

36:                                               ; preds = %30
  %37 = load ptr, ptr %6, align 8
  %38 = load ptr, ptr @_ZN8TypeLong4ZEROE, align 8
  %39 = icmp eq ptr %37, %38
  br i1 %39, label %40, label %42

40:                                               ; preds = %36
  %41 = load ptr, ptr @_ZN8TypeLong4ZEROE, align 8
  store ptr %41, ptr %3, align 8
  br label %144

42:                                               ; preds = %36
  %43 = load ptr, ptr %7, align 8
  %44 = load ptr, ptr @_ZN7TypeInt4ZEROE, align 8
  %45 = icmp eq ptr %43, %44
  br i1 %45, label %46, label %48

46:                                               ; preds = %42
  %47 = load ptr, ptr %6, align 8
  store ptr %47, ptr %3, align 8
  br label %144

48:                                               ; preds = %42
  %49 = load ptr, ptr %6, align 8
  %50 = load ptr, ptr @_ZN4Type6BOTTOME, align 8
  %51 = icmp eq ptr %49, %50
  br i1 %51, label %56, label %52

52:                                               ; preds = %48
  %53 = load ptr, ptr %7, align 8
  %54 = load ptr, ptr @_ZN4Type6BOTTOME, align 8
  %55 = icmp eq ptr %53, %54
  br i1 %55, label %56, label %58

56:                                               ; preds = %52, %48
  %57 = load ptr, ptr @_ZN8TypeLong4LONGE, align 8
  store ptr %57, ptr %3, align 8
  br label %144

58:                                               ; preds = %52
  %59 = load ptr, ptr %7, align 8
  %60 = load ptr, ptr @_ZN7TypeInt3INTE, align 8
  %61 = icmp eq ptr %59, %60
  br i1 %61, label %62, label %64

62:                                               ; preds = %58
  %63 = load ptr, ptr @_ZN8TypeLong4LONGE, align 8
  store ptr %63, ptr %3, align 8
  br label %144

64:                                               ; preds = %58
  %65 = load ptr, ptr %6, align 8
  %66 = call noundef ptr @_ZNK4Type7is_longEv(ptr noundef nonnull align 8 dereferenceable(20) %65)
  store ptr %66, ptr %8, align 8
  %67 = load ptr, ptr %7, align 8
  %68 = call noundef ptr @_ZNK4Type6is_intEv(ptr noundef nonnull align 8 dereferenceable(20) %67)
  store ptr %68, ptr %9, align 8
  %69 = load ptr, ptr %9, align 8
  %70 = call noundef zeroext i1 @_ZNK7TypeInt6is_conEv(ptr noundef nonnull align 8 dereferenceable(32) %69)
  br i1 %70, label %71, label %142

71:                                               ; preds = %64
  %72 = load ptr, ptr %9, align 8
  %73 = call noundef i32 @_ZNK7TypeInt7get_conEv(ptr noundef nonnull align 8 dereferenceable(32) %72)
  store i32 %73, ptr %10, align 4
  %74 = load i32, ptr %10, align 4
  %75 = and i32 %74, 63
  store i32 %75, ptr %10, align 4
  %76 = load i32, ptr %10, align 4
  %77 = icmp eq i32 %76, 0
  br i1 %77, label %78, label %80

78:                                               ; preds = %71
  %79 = load ptr, ptr %6, align 8
  store ptr %79, ptr %3, align 8
  br label %144

80:                                               ; preds = %71
  %81 = load ptr, ptr %8, align 8
  %82 = getelementptr inbounds %class.TypeLong, ptr %81, i32 0, i32 1
  %83 = load i64, ptr %82, align 8
  %84 = load i32, ptr %10, align 4
  %85 = zext i32 %84 to i64
  %86 = lshr i64 %83, %85
  store i64 %86, ptr %11, align 8
  %87 = load ptr, ptr %8, align 8
  %88 = getelementptr inbounds %class.TypeLong, ptr %87, i32 0, i32 2
  %89 = load i64, ptr %88, align 8
  %90 = load i32, ptr %10, align 4
  %91 = zext i32 %90 to i64
  %92 = lshr i64 %89, %91
  store i64 %92, ptr %12, align 8
  %93 = load ptr, ptr %8, align 8
  %94 = getelementptr inbounds %class.TypeLong, ptr %93, i32 0, i32 2
  %95 = load i64, ptr %94, align 8
  %96 = icmp sge i64 %95, 0
  br i1 %96, label %97, label %129

97:                                               ; preds = %80
  %98 = load ptr, ptr %8, align 8
  %99 = getelementptr inbounds %class.TypeLong, ptr %98, i32 0, i32 1
  %100 = load i64, ptr %99, align 8
  %101 = icmp slt i64 %100, 0
  br i1 %101, label %102, label %129

102:                                              ; preds = %97
  %103 = load i64, ptr %11, align 8
  store i64 %103, ptr %13, align 8
  %104 = load i32, ptr %10, align 4
  %105 = zext i32 %104 to i64
  %106 = lshr i64 -1, %105
  store i64 %106, ptr %14, align 8
  %107 = load i32, ptr %10, align 4
  %108 = zext i32 %107 to i64
  %109 = lshr i64 0, %108
  store i64 %109, ptr %15, align 8
  %110 = load i64, ptr %12, align 8
  store i64 %110, ptr %16, align 8
  %111 = load i64, ptr %13, align 8
  %112 = load i64, ptr %15, align 8
  %113 = icmp slt i64 %111, %112
  br i1 %113, label %114, label %116

114:                                              ; preds = %102
  %115 = load i64, ptr %13, align 8
  br label %118

116:                                              ; preds = %102
  %117 = load i64, ptr %15, align 8
  br label %118

118:                                              ; preds = %116, %114
  %119 = phi i64 [ %115, %114 ], [ %117, %116 ]
  store i64 %119, ptr %11, align 8
  %120 = load i64, ptr %14, align 8
  %121 = load i64, ptr %16, align 8
  %122 = icmp sgt i64 %120, %121
  br i1 %122, label %123, label %125

123:                                              ; preds = %118
  %124 = load i64, ptr %14, align 8
  br label %127

125:                                              ; preds = %118
  %126 = load i64, ptr %16, align 8
  br label %127

127:                                              ; preds = %125, %123
  %128 = phi i64 [ %124, %123 ], [ %126, %125 ]
  store i64 %128, ptr %12, align 8
  br label %129

129:                                              ; preds = %127, %97, %80
  %130 = load i64, ptr %11, align 8
  %131 = load i64, ptr %12, align 8
  %132 = load ptr, ptr %8, align 8
  %133 = getelementptr inbounds %class.TypeInteger, ptr %132, i32 0, i32 1
  %134 = load i16, ptr %133, align 4
  %135 = load ptr, ptr %9, align 8
  %136 = getelementptr inbounds %class.TypeInteger, ptr %135, i32 0, i32 1
  %137 = load i16, ptr %136, align 4
  %138 = call noundef signext i16 @_Z4MAX2IsET_S0_S0_(i16 noundef signext %134, i16 noundef signext %137)
  %139 = sext i16 %138 to i32
  %140 = call noundef ptr @_ZN8TypeLong4makeElli(i64 noundef %130, i64 noundef %131, i32 noundef %139)
  store ptr %140, ptr %17, align 8
  %141 = load ptr, ptr %17, align 8
  store ptr %141, ptr %3, align 8
  br label %144

142:                                              ; preds = %64
  %143 = load ptr, ptr @_ZN8TypeLong4LONGE, align 8
  store ptr %143, ptr %3, align 8
  br label %144

144:                                              ; preds = %142, %129, %78, %62, %56, %46, %40, %34, %28
  %145 = load ptr, ptr %3, align 8
  ret ptr %145
}