; Function Attrs: mustprogress nounwind uwtable
define hidden noundef ptr @_ZNK12URShiftLNode5ValueEP8PhaseGVN(ptr nocapture noundef nonnull readonly align 8 dereferenceable(52) %0, ptr nocapture noundef readonly %1) unnamed_addr #0 align 2 {
  %3 = getelementptr inbounds i8, ptr %0, i64 8
  %4 = load ptr, ptr %3, align 8
  %5 = getelementptr inbounds i8, ptr %4, i64 8
  %6 = load ptr, ptr %5, align 8
  %7 = getelementptr inbounds i8, ptr %1, i64 40
  %8 = load ptr, ptr %7, align 8
  %9 = getelementptr inbounds i8, ptr %6, i64 40
  %10 = load i32, ptr %9, align 8
  %11 = getelementptr inbounds i8, ptr %8, i64 16
  %12 = load ptr, ptr %11, align 8
  %13 = zext i32 %10 to i64
  %14 = getelementptr inbounds ptr, ptr %12, i64 %13
  %15 = load ptr, ptr %14, align 8
  %16 = getelementptr inbounds i8, ptr %4, i64 16
  %17 = load ptr, ptr %16, align 8
  %18 = getelementptr inbounds i8, ptr %17, i64 40
  %19 = load i32, ptr %18, align 8
  %20 = zext i32 %19 to i64
  %21 = getelementptr inbounds ptr, ptr %12, i64 %20
  %22 = load ptr, ptr %21, align 8
  %23 = load ptr, ptr @_ZN4Type3TOPE, align 8
  %24 = icmp eq ptr %15, %23
  %25 = icmp eq ptr %22, %23
  %or.cond50 = or i1 %24, %25
  br i1 %or.cond50, label %73, label %26

26:                                               ; preds = %2
  %27 = load ptr, ptr @_ZN8TypeLong4ZEROE, align 8
  %28 = icmp eq ptr %15, %27
  br i1 %28, label %73, label %29

29:                                               ; preds = %26
  %30 = load ptr, ptr @_ZN7TypeInt4ZEROE, align 8
  %31 = icmp eq ptr %22, %30
  br i1 %31, label %73, label %32

32:                                               ; preds = %29
  %33 = load ptr, ptr @_ZN4Type6BOTTOME, align 8
  %34 = icmp eq ptr %15, %33
  %35 = icmp eq ptr %22, %33
  %or.cond = or i1 %34, %35
  br i1 %or.cond, label %36, label %38

36:                                               ; preds = %32
  %37 = load ptr, ptr @_ZN8TypeLong4LONGE, align 8
  br label %73

38:                                               ; preds = %32
  %39 = load ptr, ptr @_ZN7TypeInt3INTE, align 8
  %40 = icmp eq ptr %22, %39
  br i1 %40, label %41, label %43

41:                                               ; preds = %38
  %42 = load ptr, ptr @_ZN8TypeLong4LONGE, align 8
  br label %73

43:                                               ; preds = %38
  %44 = getelementptr inbounds i8, ptr %22, i64 24
  %45 = load i32, ptr %44, align 8
  %46 = getelementptr inbounds i8, ptr %22, i64 28
  %47 = load i32, ptr %46, align 4
  %48 = icmp eq i32 %45, %47
  br i1 %48, label %49, label %71

49:                                               ; preds = %43
  %50 = and i32 %45, 63
  %51 = icmp eq i32 %50, 0
  br i1 %51, label %73, label %52

52:                                               ; preds = %49
  %53 = getelementptr inbounds i8, ptr %15, i64 24
  %54 = load i64, ptr %53, align 8
  %55 = zext nneg i32 %50 to i64
  %56 = lshr i64 %54, %55
  %57 = getelementptr inbounds i8, ptr %15, i64 32
  %58 = load i64, ptr %57, align 8
  %59 = lshr i64 %58, %55
  %60 = icmp sgt i64 %58, -1
  %61 = icmp slt i64 %54, 0
  %or.cond49 = select i1 %60, i1 %61, i1 false
  %62 = lshr i64 -1, %55
  %63 = tail call i64 @llvm.umax.i64(i64 %62, i64 %59)
  %.042 = select i1 %or.cond49, i64 %63, i64 %59
  %.041 = select i1 %or.cond49, i64 0, i64 %56
  %64 = getelementptr inbounds i8, ptr %15, i64 20
  %65 = load i16, ptr %64, align 4
  %66 = getelementptr inbounds i8, ptr %22, i64 20
  %67 = load i16, ptr %66, align 4
  %68 = tail call noundef i16 @llvm.smax.i16(i16 %65, i16 %67)
  %69 = sext i16 %68 to i32
  %70 = tail call noundef ptr @_ZN8TypeLong4makeElli(i64 noundef %.041, i64 noundef %.042, i32 noundef %69) #10
  br label %73

71:                                               ; preds = %43
  %72 = load ptr, ptr @_ZN8TypeLong4LONGE, align 8
  br label %73

73:                                               ; preds = %49, %29, %26, %2, %71, %52, %41, %36
  %.0 = phi ptr [ %37, %36 ], [ %42, %41 ], [ %70, %52 ], [ %72, %71 ], [ %23, %2 ], [ %27, %26 ], [ %15, %29 ], [ %15, %49 ]
  ret ptr %.0
}